; Function Attrs: nounwind uwtable
define dso_local i64 @cash_div_flt4(ptr noundef readonly captures(none) %0) local_unnamed_addr #0 {
  %2 = getelementptr inbounds nuw i8, ptr %0, i64 32
  %3 = load i64, ptr %2, align 8
  %4 = getelementptr inbounds nuw i8, ptr %0, i64 48
  %5 = load i64, ptr %4, align 8
  %6 = trunc i64 %5 to i32
  %7 = bitcast i32 %6 to float
  %8 = fpext float %7 to double
  %9 = fcmp oeq float %7, 0.000000e+00
  br i1 %9, label %10, label %11, !prof !17

10:                                               ; preds = %1
  tail call void @float_zero_divide_error() #17
  unreachable

11:                                               ; preds = %1
  %12 = sitofp i64 %3 to double
  %13 = fdiv double %12, %8
  %14 = tail call double @llvm.fabs.f64(double %13)
  %15 = fcmp oeq double %14, 0x7FF0000000000000
  br i1 %15, label %16, label %17, !prof !17

16:                                               ; preds = %11
  tail call void @float_overflow_error() #17
  unreachable

17:                                               ; preds = %11
  %18 = fcmp oeq double %13, 0.000000e+00
  br i1 %18, label %19, label %float8_div.exit.i, !prof !17

19:                                               ; preds = %17
  %20 = icmp eq i64 %3, 0
  %21 = tail call double @llvm.fabs.f64(double %8)
  %22 = fcmp oeq double %21, 0x7FF0000000000000
  %or.cond.i.i = or i1 %20, %22
  br i1 %or.cond.i.i, label %float8_div.exit.i, label %23

23:                                               ; preds = %19
  tail call void @float_underflow_error() #17
  unreachable

float8_div.exit.i:                                ; preds = %19, %17
  %24 = tail call double @llvm.rint.f64(double %13)
  %25 = fcmp uno double %24, 0.000000e+00
  br i1 %25, label %.critedge.i, label %26

26:                                               ; preds = %float8_div.exit.i
  %27 = fcmp ult double %24, 0xC3E0000000000000
  %28 = fcmp uge double %24, 0x43E0000000000000
  %.not6.i = or i1 %27, %28
  br i1 %.not6.i, label %.critedge.i, label %cash_div_float8.exit, !prof !17

.critedge.i:                                      ; preds = %26, %float8_div.exit.i
  %29 = tail call zeroext i1 @errstart_cold(i32 noundef 21, ptr noundef null) #16
  tail call void @llvm.assume(i1 %29)
  %30 = tail call i32 @errcode(i32 noundef 50331778) #13
  %31 = tail call i32 (ptr, ...) @errmsg(ptr noundef nonnull @.str.25) #13
  tail call void @errfinish(ptr noundef nonnull @.str.7, i32 noundef 137, ptr noundef nonnull @__func__.cash_div_float8) #13
  unreachable

cash_div_float8.exit:                             ; preds = %26
  %32 = fptosi double %24 to i64
  ret i64 %32
}